target datalayout = "e-m:e-p270:32:32-p271:32:32-p272:64:64-i64:64-i128:128-f80:128-n8:16:32:64-S128"
target triple = "x86_64-pc-linux-gnu"

%union.pthread_mutex_t = type { %struct.__pthread_mutex_s }
%struct.__pthread_mutex_s = type { i32, i32, i32, i32, i32, i16, i16, %struct.__pthread_internal_list }
%struct.__pthread_internal_list = type { ptr, ptr }
%struct.slurm_acct_gather_filesystem_ops = type { ptr, ptr, ptr, ptr, ptr }
%struct.acct_gather_profile_timer_t = type { i32, i64, %union.pthread_cond_t, %union.pthread_mutex_t }
%union.pthread_cond_t = type { %struct.__pthread_cond_s }
%struct.__pthread_cond_s = type { %union.__atomic_wide_counter, %union.__atomic_wide_counter, [2 x i32], [2 x i32], i32, i32, [2 x i32] }
%union.__atomic_wide_counter = type { i64 }

@g_context_lock = internal global %union.pthread_mutex_t zeroinitializer, align 8
@.str.1 = private unnamed_addr constant [29 x i8] c"%s: pthread_mutex_lock(): %m\00", align 1
@plugin_inited = internal global i32 0, align 4
@ops = internal global %struct.slurm_acct_gather_filesystem_ops zeroinitializer, align 8
@.str.3 = private unnamed_addr constant [31 x i8] c"%s: pthread_mutex_unlock(): %m\00", align 1
@profile_timer = internal global ptr getelementptr (i8, ptr @acct_gather_profile_timer, i64 208), align 8
@.str.6 = private unnamed_addr constant [25 x i8] c"acct_gather_filesystem.c\00", align 1
@.str.21 = private unnamed_addr constant [9 x i8] c"acctg_fs\00", align 1
@.str.22 = private unnamed_addr constant [32 x i8] c"%s: cannot set my name to %s %m\00", align 1
@__func__._watch_node = private unnamed_addr constant [12 x i8] c"_watch_node\00", align 1
@.str.23 = private unnamed_addr constant [34 x i8] c"%s:%d %s: pthread_cond_wait(): %m\00", align 1

; Function Attrs: nounwind uwtable
define internal ptr @_watch_node(ptr noundef %0) #0 {
  %2 = alloca ptr, align 8
  %3 = alloca i32, align 4
  %4 = alloca i32, align 4
  %5 = alloca i32, align 4
  %6 = alloca i32, align 4
  %7 = alloca i32, align 4
  store ptr %0, ptr %2, align 8
  %8 = call i32 (i32, ...) @prctl(i32 noundef 15, ptr noundef @.str.21, ptr noundef null, ptr noundef null, ptr noundef null) #6
  %9 = icmp slt i32 %8, 0
  br i1 %9, label %10, label %12

10:                                               ; preds = %1
  %11 = call i32 (ptr, ...) @error(ptr noundef @.str.22, ptr noundef @__func__._watch_node, ptr noundef @.str.21)
  br label %12

12:                                               ; preds = %10, %1
  br label %13

13:                                               ; preds = %76, %12
  %14 = load i32, ptr @plugin_inited, align 4
  %15 = icmp eq i32 %14, 2
  br i1 %15, label %16, label %18

16:                                               ; preds = %13
  %17 = call zeroext i1 @acct_gather_profile_test()
  br label %18

18:                                               ; preds = %16, %13
  %19 = phi i1 [ false, %13 ], [ %17, %16 ]
  br i1 %19, label %20, label %77

20:                                               ; preds = %18
  br label %21

21:                                               ; preds = %20
  call void @llvm.lifetime.start.p0(i64 4, ptr %3) #6
  %22 = call i32 @pthread_mutex_lock(ptr noundef @g_context_lock) #6
  store i32 %22, ptr %3, align 4
  %23 = load i32, ptr %3, align 4
  %24 = icmp ne i32 %23, 0
  br i1 %24, label %25, label %28

25:                                               ; preds = %21
  %26 = load i32, ptr %3, align 4
  %27 = call ptr @__errno_location() #7
  store i32 %26, ptr %27, align 4
  call void (ptr, ...) @fatal_abort(ptr noundef @.str.1, ptr noundef @__func__._watch_node) #8
  unreachable

28:                                               ; preds = %21
  call void @llvm.lifetime.end.p0(i64 4, ptr %3) #6
  br label %29

29:                                               ; preds = %28
  %30 = load ptr, ptr @ops, align 8
  %31 = call i32 %30()
  br label %32

32:                                               ; preds = %29
  call void @llvm.lifetime.start.p0(i64 4, ptr %4) #6
  %33 = call i32 @pthread_mutex_unlock(ptr noundef @g_context_lock) #6
  store i32 %33, ptr %4, align 4
  %34 = load i32, ptr %4, align 4
  %35 = icmp ne i32 %34, 0
  br i1 %35, label %36, label %39

36:                                               ; preds = %32
  %37 = load i32, ptr %4, align 4
  %38 = call ptr @__errno_location() #7
  store i32 %37, ptr %38, align 4
  call void (ptr, ...) @fatal_abort(ptr noundef @.str.3, ptr noundef @__func__._watch_node) #8
  unreachable

39:                                               ; preds = %32
  call void @llvm.lifetime.end.p0(i64 4, ptr %4) #6
  br label %40

40:                                               ; preds = %39
  br label %41

41:                                               ; preds = %40
  call void @llvm.lifetime.start.p0(i64 4, ptr %5) #6
  %42 = load ptr, ptr @profile_timer, align 8
  %43 = getelementptr inbounds nuw %struct.acct_gather_profile_timer_t, ptr %42, i32 0, i32 3
  %44 = call i32 @pthread_mutex_lock(ptr noundef %43) #6
  store i32 %44, ptr %5, align 4
  %45 = load i32, ptr %5, align 4
  %46 = icmp ne i32 %45, 0
  br i1 %46, label %47, label %50

47:                                               ; preds = %41
  %48 = load i32, ptr %5, align 4
  %49 = call ptr @__errno_location() #7
  store i32 %48, ptr %49, align 4
  call void (ptr, ...) @fatal_abort(ptr noundef @.str.1, ptr noundef @__func__._watch_node) #8
  unreachable

50:                                               ; preds = %41
  call void @llvm.lifetime.end.p0(i64 4, ptr %5) #6
  br label %51

51:                                               ; preds = %50
  br label %52

52:                                               ; preds = %51
  call void @llvm.lifetime.start.p0(i64 4, ptr %6) #6
  %53 = load ptr, ptr @profile_timer, align 8
  %54 = getelementptr inbounds nuw %struct.acct_gather_profile_timer_t, ptr %53, i32 0, i32 2
  %55 = load ptr, ptr @profile_timer, align 8
  %56 = getelementptr inbounds nuw %struct.acct_gather_profile_timer_t, ptr %55, i32 0, i32 3
  %57 = call i32 @pthread_cond_wait(ptr noundef %54, ptr noundef %56)
  store i32 %57, ptr %6, align 4
  %58 = load i32, ptr %6, align 4
  %59 = icmp ne i32 %58, 0
  br i1 %59, label %60, label %64

60:                                               ; preds = %52
  %61 = load i32, ptr %6, align 4
  %62 = call ptr @__errno_location() #7
  store i32 %61, ptr %62, align 4
  %63 = call i32 (ptr, ...) @error(ptr noundef @.str.23, ptr noundef @.str.6, i32 noundef 105, ptr noundef @__func__._watch_node)
  br label %64

64:                                               ; preds = %60, %52
  call void @llvm.lifetime.end.p0(i64 4, ptr %6) #6
  br label %65

65:                                               ; preds = %64
  br label %66

66:                                               ; preds = %65
  call void @llvm.lifetime.start.p0(i64 4, ptr %7) #6
  %67 = load ptr, ptr @profile_timer, align 8
  %68 = getelementptr inbounds nuw %struct.acct_gather_profile_timer_t, ptr %67, i32 0, i32 3
  %69 = call i32 @pthread_mutex_unlock(ptr noundef %68) #6
  store i32 %69, ptr %7, align 4
  %70 = load i32, ptr %7, align 4
  %71 = icmp ne i32 %70, 0
  br i1 %71, label %72, label %75

72:                                               ; preds = %66
  %73 = load i32, ptr %7, align 4
  %74 = call ptr @__errno_location() #7
  store i32 %73, ptr %74, align 4
  call void (ptr, ...) @fatal_abort(ptr noundef @.str.3, ptr noundef @__func__._watch_node) #8
  unreachable

75:                                               ; preds = %66
  call void @llvm.lifetime.end.p0(i64 4, ptr %7) #6
  br label %76

76:                                               ; preds = %75
  br label %13, !llvm.loop !10

77:                                               ; preds = %18
  ret ptr null
}