; Function Attrs: nounwind uwtable
define internal noundef ptr @_watch_node(ptr readnone captures(none) %0) #0 {
  %2 = tail call i32 (i32, ...) @prctl(i32 noundef 15, ptr noundef nonnull @.str.21, ptr noundef null, ptr noundef null, ptr noundef null) #6
  %3 = icmp slt i32 %2, 0
  br i1 %3, label %4, label %.preheader

4:                                                ; preds = %1
  %5 = tail call i32 (ptr, ...) @error(ptr noundef nonnull @.str.22, ptr noundef nonnull @__func__._watch_node, ptr noundef nonnull @.str.21) #6
  br label %.preheader

.preheader:                                       ; preds = %4, %1
  br label %6

6:                                                ; preds = %.preheader, %30
  %7 = load i32, ptr @plugin_inited, align 4
  %8 = icmp eq i32 %7, 2
  br i1 %8, label %9, label %.critedge

9:                                                ; preds = %6
  %10 = tail call zeroext i1 @acct_gather_profile_test() #6
  br i1 %10, label %11, label %.critedge

11:                                               ; preds = %9
  %12 = tail call i32 @pthread_mutex_lock(ptr noundef nonnull @g_context_lock) #6
  %.not = icmp eq i32 %12, 0
  br i1 %.not, label %15, label %13

13:                                               ; preds = %11
  %14 = tail call ptr @__errno_location() #7
  store i32 %12, ptr %14, align 4
  tail call void (ptr, ...) @fatal_abort(ptr noundef nonnull @.str.1, ptr noundef nonnull @__func__._watch_node) #8
  unreachable

15:                                               ; preds = %11
  %16 = load ptr, ptr @ops, align 8
  %17 = tail call i32 %16() #6
  %18 = tail call i32 @pthread_mutex_unlock(ptr noundef nonnull @g_context_lock) #6
  %.not14 = icmp eq i32 %18, 0
  br i1 %.not14, label %21, label %19

19:                                               ; preds = %15
  %20 = tail call ptr @__errno_location() #7
  store i32 %18, ptr %20, align 4
  tail call void (ptr, ...) @fatal_abort(ptr noundef nonnull @.str.3, ptr noundef nonnull @__func__._watch_node) #8
  unreachable

21:                                               ; preds = %15
  %22 = tail call i32 @pthread_mutex_lock(ptr noundef nonnull getelementptr inbounds nuw (i8, ptr @acct_gather_profile_timer, i64 272)) #6
  %.not15 = icmp eq i32 %22, 0
  br i1 %.not15, label %25, label %23

23:                                               ; preds = %21
  %24 = tail call ptr @__errno_location() #7
  store i32 %22, ptr %24, align 4
  tail call void (ptr, ...) @fatal_abort(ptr noundef nonnull @.str.1, ptr noundef nonnull @__func__._watch_node) #8
  unreachable

25:                                               ; preds = %21
  %26 = tail call i32 @pthread_cond_wait(ptr noundef nonnull getelementptr inbounds nuw (i8, ptr @acct_gather_profile_timer, i64 224), ptr noundef nonnull getelementptr inbounds nuw (i8, ptr @acct_gather_profile_timer, i64 272)) #6
  %.not16 = icmp eq i32 %26, 0
  br i1 %.not16, label %30, label %27

27:                                               ; preds = %25
  %28 = tail call ptr @__errno_location() #7
  store i32 %26, ptr %28, align 4
  %29 = tail call i32 (ptr, ...) @error(ptr noundef nonnull @.str.23, ptr noundef nonnull @.str.6, i32 noundef 105, ptr noundef nonnull @__func__._watch_node) #6
  br label %30

30:                                               ; preds = %27, %25
  %31 = tail call i32 @pthread_mutex_unlock(ptr noundef nonnull getelementptr inbounds nuw (i8, ptr @acct_gather_profile_timer, i64 272)) #6
  %.not17 = icmp eq i32 %31, 0
  br i1 %.not17, label %6, label %32, !llvm.loop !8

32:                                               ; preds = %30
  %33 = tail call ptr @__errno_location() #7
  store i32 %31, ptr %33, align 4
  tail call void (ptr, ...) @fatal_abort(ptr noundef nonnull @.str.3, ptr noundef nonnull @__func__._watch_node) #8
  unreachable

.critedge:                                        ; preds = %6, %9
  ret ptr null
}